target datalayout = "e-m:e-p270:32:32-p271:32:32-p272:64:64-i64:64-i128:128-f80:128-n8:16:32:64-S128"
target triple = "x86_64-pc-linux-gnu"

@.str.120 = private unnamed_addr constant [9 x i8] c"0x%08zx \00", align 1
@.str.121 = private unnamed_addr constant [10 x i8] c"\0A0x%08zx \00", align 1
@.str.122 = private unnamed_addr constant [6 x i8] c" %02x\00", align 1
@.str.123 = private unnamed_addr constant [4 x i8] c"   \00", align 1
@.str.124 = private unnamed_addr constant [4 x i8] c" %s\00", align 1

; Function Attrs: inlinehint nounwind sspstrong uwtable
define internal i64 @rbimpl_strlen(ptr noundef nonnull %0) #3 {
  %2 = alloca ptr, align 8
  store ptr %0, ptr %2, align 8, !tbaa !35
  %3 = load ptr, ptr %2, align 8, !tbaa !35
  %4 = call i64 @strlen(ptr noundef %3) #23
  ret i64 %4
}

; Function Attrs: inlinehint nounwind sspstrong uwtable
define internal i64 @rbimpl_str_cat_cstr(i64 noundef %0, ptr noundef nonnull %1) #3 {
  %3 = alloca i64, align 8
  %4 = alloca ptr, align 8
  %5 = alloca i64, align 8
  store i64 %0, ptr %3, align 8, !tbaa !20
  store ptr %1, ptr %4, align 8, !tbaa !35
  call void @llvm.lifetime.start.p0(i64 8, ptr %5) #22
  %6 = load ptr, ptr %4, align 8, !tbaa !35
  %7 = call i64 @rbimpl_strlen(ptr noundef %6)
  store i64 %7, ptr %5, align 8, !tbaa !20
  %8 = load i64, ptr %3, align 8, !tbaa !20
  %9 = load ptr, ptr %4, align 8, !tbaa !35
  %10 = load i64, ptr %5, align 8, !tbaa !20
  %11 = call i64 @rb_str_cat(i64 noundef %8, ptr noundef %9, i64 noundef %10)
  call void @llvm.lifetime.end.p0(i64 8, ptr %5) #22
  ret i64 %11
}

; Function Attrs: alwaysinline nounwind
define internal ptr @memset.inline(ptr nonnull %0, i32 %1, i64 %2) #10 {
  %4 = alloca ptr, align 8
  %5 = alloca i32, align 4
  %6 = alloca i64, align 8
  store ptr %0, ptr %4, align 8, !tbaa !7
  store i32 %1, ptr %5, align 4, !tbaa !32
  store i64 %2, ptr %6, align 8, !tbaa !20
  %7 = load ptr, ptr %4, align 8, !tbaa !7
  %8 = load i32, ptr %5, align 4, !tbaa !32
  %9 = load i64, ptr %6, align 8, !tbaa !20
  %10 = load ptr, ptr %4, align 8, !tbaa !7
  %11 = call i64 @llvm.objectsize.i64.p0(ptr %10, i1 false, i1 true, i1 false)
  %12 = call ptr @__memset_chk(ptr noundef %7, i32 noundef %8, i64 noundef %9, i64 noundef %11) #22
  ret ptr %12
}

; Function Attrs: nounwind sspstrong uwtable
define internal i64 @io_buffer_hexdump(i64 noundef %0, i64 noundef %1, ptr noundef %2, i64 noundef %3, i64 noundef %4, i32 noundef %5) #0 {
  %7 = alloca i64, align 8
  %8 = alloca i64, align 8
  %9 = alloca ptr, align 8
  %10 = alloca i64, align 8
  %11 = alloca i64, align 8
  %12 = alloca i32, align 4
  %13 = alloca ptr, align 8
  %14 = alloca i64, align 8
  %15 = alloca i8, align 1
  store i64 %0, ptr %7, align 8, !tbaa !20
  store i64 %1, ptr %8, align 8, !tbaa !20
  store ptr %2, ptr %9, align 8, !tbaa !35
  store i64 %3, ptr %10, align 8, !tbaa !20
  store i64 %4, ptr %11, align 8, !tbaa !20
  store i32 %5, ptr %12, align 4, !tbaa !32
  call void @llvm.lifetime.start.p0(i64 8, ptr %13) #22
  %16 = load i64, ptr %8, align 8, !tbaa !20
  %17 = add i64 %16, 1
  %18 = alloca i8, i64 %17, align 16
  store ptr %18, ptr %13, align 8, !tbaa !35
  %19 = load ptr, ptr %13, align 8, !tbaa !35
  %20 = load i64, ptr %8, align 8, !tbaa !20
  %21 = getelementptr i8, ptr %19, i64 %20
  store i8 0, ptr %21, align 1, !tbaa !37
  br label %22

22:                                               ; preds = %98, %6
  %23 = load i64, ptr %11, align 8, !tbaa !20
  %24 = load i64, ptr %10, align 8, !tbaa !20
  %25 = icmp ult i64 %23, %24
  br i1 %25, label %26, label %102

26:                                               ; preds = %22
  %27 = load ptr, ptr %13, align 8, !tbaa !35
  %28 = load i64, ptr %8, align 8, !tbaa !20
  %29 = call ptr @memset.inline(ptr noundef %27, i32 noundef 0, i64 noundef %28) #22
  %30 = load i32, ptr %12, align 4, !tbaa !32
  %31 = icmp ne i32 %30, 0
  br i1 %31, label %32, label %36

32:                                               ; preds = %26
  %33 = load i64, ptr %7, align 8, !tbaa !20
  %34 = load i64, ptr %11, align 8, !tbaa !20
  %35 = call i64 (i64, ptr, ...) @rb_str_catf(i64 noundef %33, ptr noundef @.str.120, i64 noundef %34)
  store i32 0, ptr %12, align 4, !tbaa !32
  br label %40

36:                                               ; preds = %26
  %37 = load i64, ptr %7, align 8, !tbaa !20
  %38 = load i64, ptr %11, align 8, !tbaa !20
  %39 = call i64 (i64, ptr, ...) @rb_str_catf(i64 noundef %37, ptr noundef @.str.121, i64 noundef %38)
  br label %40

40:                                               ; preds = %36, %32
  call void @llvm.lifetime.start.p0(i64 8, ptr %14) #22
  store i64 0, ptr %14, align 8, !tbaa !20
  br label %41

41:                                               ; preds = %91, %40
  %42 = load i64, ptr %14, align 8, !tbaa !20
  %43 = load i64, ptr %8, align 8, !tbaa !20
  %44 = icmp ult i64 %42, %43
  br i1 %44, label %46, label %45

45:                                               ; preds = %41
  call void @llvm.lifetime.end.p0(i64 8, ptr %14) #22
  br label %94

46:                                               ; preds = %41
  %47 = load i64, ptr %11, align 8, !tbaa !20
  %48 = load i64, ptr %14, align 8, !tbaa !20
  %49 = add i64 %47, %48
  %50 = load i64, ptr %10, align 8, !tbaa !20
  %51 = icmp ult i64 %49, %50
  br i1 %51, label %52, label %87

52:                                               ; preds = %46
  call void @llvm.lifetime.start.p0(i64 1, ptr %15) #22
  %53 = load ptr, ptr %9, align 8, !tbaa !35
  %54 = load i64, ptr %11, align 8, !tbaa !20
  %55 = load i64, ptr %14, align 8, !tbaa !20
  %56 = add i64 %54, %55
  %57 = getelementptr i8, ptr %53, i64 %56
  %58 = load i8, ptr %57, align 1, !tbaa !37
  store i8 %58, ptr %15, align 1, !tbaa !37
  %59 = load i8, ptr %15, align 1, !tbaa !37
  %60 = zext i8 %59 to i32
  %61 = icmp slt i32 %60, 127
  br i1 %61, label %62, label %78

62:                                               ; preds = %52
  %63 = call ptr @__ctype_b_loc() #24
  %64 = load ptr, ptr %63, align 8, !tbaa !38
  %65 = load i8, ptr %15, align 1, !tbaa !37
  %66 = zext i8 %65 to i32
  %67 = sext i32 %66 to i64
  %68 = getelementptr i16, ptr %64, i64 %67
  %69 = load i16, ptr %68, align 2, !tbaa !40
  %70 = zext i16 %69 to i32
  %71 = and i32 %70, 16384
  %72 = icmp ne i32 %71, 0
  br i1 %72, label %73, label %78

73:                                               ; preds = %62
  %74 = load i8, ptr %15, align 1, !tbaa !37
  %75 = load ptr, ptr %13, align 8, !tbaa !35
  %76 = load i64, ptr %14, align 8, !tbaa !20
  %77 = getelementptr i8, ptr %75, i64 %76
  store i8 %74, ptr %77, align 1, !tbaa !37
  br label %82

78:                                               ; preds = %62, %52
  %79 = load ptr, ptr %13, align 8, !tbaa !35
  %80 = load i64, ptr %14, align 8, !tbaa !20
  %81 = getelementptr i8, ptr %79, i64 %80
  store i8 46, ptr %81, align 1, !tbaa !37
  br label %82

82:                                               ; preds = %78, %73
  %83 = load i64, ptr %7, align 8, !tbaa !20
  %84 = load i8, ptr %15, align 1, !tbaa !37
  %85 = zext i8 %84 to i32
  %86 = call i64 (i64, ptr, ...) @rb_str_catf(i64 noundef %83, ptr noundef @.str.122, i32 noundef %85)
  call void @llvm.lifetime.end.p0(i64 1, ptr %15) #22
  br label %90

87:                                               ; preds = %46
  %88 = load i64, ptr %7, align 8, !tbaa !20
  %89 = call i64 @rbimpl_str_cat_cstr(i64 noundef %88, ptr noundef @.str.123)
  br label %90

90:                                               ; preds = %87, %82
  br label %91

91:                                               ; preds = %90
  %92 = load i64, ptr %14, align 8, !tbaa !20
  %93 = add i64 %92, 1
  store i64 %93, ptr %14, align 8, !tbaa !20
  br label %41, !llvm.loop !42

94:                                               ; preds = %45
  %95 = load i64, ptr %7, align 8, !tbaa !20
  %96 = load ptr, ptr %13, align 8, !tbaa !35
  %97 = call i64 (i64, ptr, ...) @rb_str_catf(i64 noundef %95, ptr noundef @.str.124, ptr noundef %96)
  br label %98

98:                                               ; preds = %94
  %99 = load i64, ptr %8, align 8, !tbaa !20
  %100 = load i64, ptr %11, align 8, !tbaa !20
  %101 = add i64 %100, %99
  store i64 %101, ptr %11, align 8, !tbaa !20
  br label %22, !llvm.loop !44

102:                                              ; preds = %22
  %103 = load i64, ptr %7, align 8, !tbaa !20
  call void @llvm.lifetime.end.p0(i64 8, ptr %13) #22
  ret i64 %103
}