; Function Attrs: nounwind sspstrong uwtable
define internal fastcc noundef i64 @io_buffer_hexdump(i64 noundef returned %0, i64 noundef range(i64 1, 0) %1, ptr noundef readonly captures(none) %2, i64 noundef %3, i64 noundef %4, i32 noundef range(i32 0, 2) %5) unnamed_addr #0 {
  %7 = add i64 %1, 1
  %8 = alloca i8, i64 %7, align 16
  %9 = getelementptr i8, ptr %8, i64 %1
  store i8 0, ptr %9, align 1, !tbaa !36
  %10 = icmp ult i64 %4, %3
  br i1 %10, label %.lr.ph, label %._crit_edge

.lr.ph:                                           ; preds = %6
  %11 = icmp eq i32 %5, 0
  %12 = select i1 %11, ptr @.str.121, ptr @.str.120
  br label %13

13:                                               ; preds = %.lr.ph, %15
  %.044 = phi i64 [ %4, %.lr.ph ], [ %17, %15 ]
  %.03643 = phi ptr [ %12, %.lr.ph ], [ @.str.121, %15 ]
  call void @llvm.memset.p0.i64(ptr noundef nonnull align 16 dereferenceable(1) %8, i8 noundef 0, i64 noundef %1, i1 noundef false) #25
  %14 = call i64 (i64, ptr, ...) @rb_str_catf(i64 noundef %0, ptr noundef nonnull %.03643, i64 noundef %.044) #25
  br label %19

15:                                               ; preds = %40
  %16 = call i64 (i64, ptr, ...) @rb_str_catf(i64 noundef %0, ptr noundef nonnull @.str.124, ptr noundef nonnull %8) #25
  %17 = add i64 %.044, %1
  %18 = icmp ult i64 %17, %3
  br i1 %18, label %13, label %._crit_edge, !llvm.loop !37

19:                                               ; preds = %13, %40
  %.03541 = phi i64 [ 0, %13 ], [ %41, %40 ]
  %20 = add i64 %.03541, %.044
  %21 = icmp ult i64 %20, %3
  br i1 %21, label %22, label %38

22:                                               ; preds = %19
  %23 = getelementptr i8, ptr %2, i64 %20
  %24 = load i8, ptr %23, align 1, !tbaa !36
  %25 = zext i8 %24 to i32
  %26 = icmp ult i8 %24, 127
  br i1 %26, label %27, label %34

27:                                               ; preds = %22
  %28 = tail call ptr @__ctype_b_loc() #29
  %29 = load ptr, ptr %28, align 8, !tbaa !39
  %30 = zext nneg i8 %24 to i64
  %31 = getelementptr i16, ptr %29, i64 %30
  %32 = load i16, ptr %31, align 2, !tbaa !41
  %33 = and i16 %32, 16384
  %.not = icmp eq i16 %33, 0
  br i1 %.not, label %34, label %35

34:                                               ; preds = %27, %22
  br label %35

35:                                               ; preds = %27, %34
  %.sink = phi i8 [ 46, %34 ], [ %24, %27 ]
  %36 = getelementptr i8, ptr %8, i64 %.03541
  store i8 %.sink, ptr %36, align 1, !tbaa !36
  %37 = call i64 (i64, ptr, ...) @rb_str_catf(i64 noundef %0, ptr noundef nonnull @.str.122, i32 noundef %25) #25
  br label %40

38:                                               ; preds = %19
  %39 = call i64 @rb_str_cat(i64 noundef %0, ptr noundef nonnull @.str.123, i64 noundef 3) #25
  br label %40

40:                                               ; preds = %35, %38
  %41 = add nuw i64 %.03541, 1
  %exitcond.not = icmp eq i64 %41, %1
  br i1 %exitcond.not, label %15, label %19, !llvm.loop !43

._crit_edge:                                      ; preds = %15, %6
  ret i64 %0
}